target datalayout = "e-m:e-p270:32:32-p271:32:32-p272:64:64-i64:64-i128:128-f80:128-n8:16:32:64-S128"
target triple = "x86_64-pc-linux-gnu"

%struct.DdManager = type { %struct.DdNode, ptr, ptr, ptr, ptr, ptr, ptr, ptr, i32, i32, double, double, double, i32, i32, i32, i32, i32, i32, ptr, ptr, %struct.DdSubtable, i32, i32, i32, i32, i32, i32, i32, double, i32, i32, i32, ptr, i64, double, i32, ptr, ptr, ptr, ptr, ptr, ptr, ptr, i32, ptr, ptr, ptr, ptr, ptr, ptr, i32, i32, i32, double, i32, i32, i32, i32, double, double, i32, i32, i32, i32, i32, i32, i32, i32, i32, ptr, ptr, i32, i32, i32, i32, i32, i32, ptr, ptr, ptr, ptr, ptr, ptr, ptr, ptr, i32, i64, i64, i64, i32, i64, i64, double, double, double, double, double, double, i32, ptr, ptr, i64 }
%struct.DdNode = type { i32, i32, ptr, %union.anon, i64 }
%union.anon = type { %struct.DdChildren }
%struct.DdChildren = type { ptr, ptr }
%struct.DdSubtable = type { ptr, i32, i32, i32, i32, i32, i32, i32, i32, i32, i32, i32 }

; Function Attrs: nounwind uwtable
define internal ptr @cuddBddTransferPermuteRecur(ptr noundef %0, ptr noundef %1, ptr noundef %2, ptr noundef %3, ptr noundef %4) #0 {
  %6 = alloca ptr, align 8
  %7 = alloca ptr, align 8
  %8 = alloca ptr, align 8
  %9 = alloca ptr, align 8
  %10 = alloca ptr, align 8
  %11 = alloca ptr, align 8
  %12 = alloca ptr, align 8
  %13 = alloca ptr, align 8
  %14 = alloca ptr, align 8
  %15 = alloca ptr, align 8
  %16 = alloca ptr, align 8
  %17 = alloca ptr, align 8
  %18 = alloca ptr, align 8
  %19 = alloca ptr, align 8
  %20 = alloca i32, align 4
  %21 = alloca i32, align 4
  %22 = alloca i32, align 4
  store ptr %0, ptr %7, align 8, !tbaa !8
  store ptr %1, ptr %8, align 8, !tbaa !8
  store ptr %2, ptr %9, align 8, !tbaa !14
  store ptr %3, ptr %10, align 8, !tbaa !61
  store ptr %4, ptr %11, align 8, !tbaa !43
  call void @llvm.lifetime.start.p0(i64 8, ptr %12) #5
  call void @llvm.lifetime.start.p0(i64 8, ptr %13) #5
  call void @llvm.lifetime.start.p0(i64 8, ptr %14) #5
  call void @llvm.lifetime.start.p0(i64 8, ptr %15) #5
  call void @llvm.lifetime.start.p0(i64 8, ptr %16) #5
  call void @llvm.lifetime.start.p0(i64 8, ptr %17) #5
  call void @llvm.lifetime.start.p0(i64 8, ptr %18) #5
  call void @llvm.lifetime.start.p0(i64 8, ptr %19) #5
  call void @llvm.lifetime.start.p0(i64 4, ptr %20) #5
  call void @llvm.lifetime.start.p0(i64 4, ptr %21) #5
  store i32 0, ptr %21, align 4, !tbaa !12
  %23 = load ptr, ptr %8, align 8, !tbaa !8
  %24 = getelementptr inbounds nuw %struct.DdManager, ptr %23, i32 0, i32 1
  %25 = load ptr, ptr %24, align 8, !tbaa !25
  store ptr %25, ptr %18, align 8, !tbaa !14
  %26 = load ptr, ptr %9, align 8, !tbaa !14
  %27 = ptrtoint ptr %26 to i64
  %28 = and i64 %27, 1
  %29 = trunc i64 %28 to i32
  store i32 %29, ptr %21, align 4, !tbaa !12
  %30 = load ptr, ptr %9, align 8, !tbaa !14
  %31 = ptrtoint ptr %30 to i64
  %32 = and i64 %31, -2
  %33 = inttoptr i64 %32 to ptr
  %34 = getelementptr inbounds nuw %struct.DdNode, ptr %33, i32 0, i32 0
  %35 = load i32, ptr %34, align 8, !tbaa !44
  %36 = icmp eq i32 %35, 2147483647
  br i1 %36, label %37, label %44

37:                                               ; preds = %5
  %38 = load ptr, ptr %18, align 8, !tbaa !14
  %39 = ptrtoint ptr %38 to i64
  %40 = load i32, ptr %21, align 4, !tbaa !12
  %41 = sext i32 %40 to i64
  %42 = xor i64 %39, %41
  %43 = inttoptr i64 %42 to ptr
  store ptr %43, ptr %6, align 8
  store i32 1, ptr %22, align 4
  br label %170

44:                                               ; preds = %5
  %45 = load ptr, ptr %9, align 8, !tbaa !14
  %46 = ptrtoint ptr %45 to i64
  %47 = load i32, ptr %21, align 4, !tbaa !12
  %48 = sext i32 %47 to i64
  %49 = xor i64 %46, %48
  %50 = inttoptr i64 %49 to ptr
  store ptr %50, ptr %9, align 8, !tbaa !14
  %51 = load ptr, ptr %10, align 8, !tbaa !61
  %52 = load ptr, ptr %9, align 8, !tbaa !14
  %53 = call i32 @st__lookup(ptr noundef %51, ptr noundef %52, ptr noundef %17)
  %54 = icmp ne i32 %53, 0
  br i1 %54, label %55, label %62

55:                                               ; preds = %44
  %56 = load ptr, ptr %17, align 8, !tbaa !14
  %57 = ptrtoint ptr %56 to i64
  %58 = load i32, ptr %21, align 4, !tbaa !12
  %59 = sext i32 %58 to i64
  %60 = xor i64 %57, %59
  %61 = inttoptr i64 %60 to ptr
  store ptr %61, ptr %6, align 8
  store i32 1, ptr %22, align 4
  br label %170

62:                                               ; preds = %44
  %63 = load ptr, ptr %11, align 8, !tbaa !43
  %64 = load ptr, ptr %9, align 8, !tbaa !14
  %65 = getelementptr inbounds nuw %struct.DdNode, ptr %64, i32 0, i32 0
  %66 = load i32, ptr %65, align 8, !tbaa !44
  %67 = zext i32 %66 to i64
  %68 = getelementptr inbounds nuw i32, ptr %63, i64 %67
  %69 = load i32, ptr %68, align 4, !tbaa !12
  store i32 %69, ptr %20, align 4, !tbaa !12
  %70 = load ptr, ptr %9, align 8, !tbaa !14
  %71 = getelementptr inbounds nuw %struct.DdNode, ptr %70, i32 0, i32 3
  %72 = getelementptr inbounds nuw %struct.DdChildren, ptr %71, i32 0, i32 0
  %73 = load ptr, ptr %72, align 8, !tbaa !45
  store ptr %73, ptr %12, align 8, !tbaa !14
  %74 = load ptr, ptr %9, align 8, !tbaa !14
  %75 = getelementptr inbounds nuw %struct.DdNode, ptr %74, i32 0, i32 3
  %76 = getelementptr inbounds nuw %struct.DdChildren, ptr %75, i32 0, i32 1
  %77 = load ptr, ptr %76, align 8, !tbaa !45
  store ptr %77, ptr %13, align 8, !tbaa !14
  %78 = load ptr, ptr %7, align 8, !tbaa !8
  %79 = load ptr, ptr %8, align 8, !tbaa !8
  %80 = load ptr, ptr %12, align 8, !tbaa !14
  %81 = load ptr, ptr %10, align 8, !tbaa !61
  %82 = load ptr, ptr %11, align 8, !tbaa !43
  %83 = call ptr @cuddBddTransferPermuteRecur(ptr noundef %78, ptr noundef %79, ptr noundef %80, ptr noundef %81, ptr noundef %82)
  store ptr %83, ptr %14, align 8, !tbaa !14
  %84 = load ptr, ptr %14, align 8, !tbaa !14
  %85 = icmp eq ptr %84, null
  br i1 %85, label %86, label %87

86:                                               ; preds = %62
  store ptr null, ptr %6, align 8
  store i32 1, ptr %22, align 4
  br label %170

87:                                               ; preds = %62
  %88 = load ptr, ptr %14, align 8, !tbaa !14
  %89 = ptrtoint ptr %88 to i64
  %90 = and i64 %89, -2
  %91 = inttoptr i64 %90 to ptr
  %92 = getelementptr inbounds nuw %struct.DdNode, ptr %91, i32 0, i32 1
  %93 = load i32, ptr %92, align 4, !tbaa !70
  %94 = add i32 %93, 1
  store i32 %94, ptr %92, align 4, !tbaa !70
  %95 = load ptr, ptr %7, align 8, !tbaa !8
  %96 = load ptr, ptr %8, align 8, !tbaa !8
  %97 = load ptr, ptr %13, align 8, !tbaa !14
  %98 = load ptr, ptr %10, align 8, !tbaa !61
  %99 = load ptr, ptr %11, align 8, !tbaa !43
  %100 = call ptr @cuddBddTransferPermuteRecur(ptr noundef %95, ptr noundef %96, ptr noundef %97, ptr noundef %98, ptr noundef %99)
  store ptr %100, ptr %15, align 8, !tbaa !14
  %101 = load ptr, ptr %15, align 8, !tbaa !14
  %102 = icmp eq ptr %101, null
  br i1 %102, label %103, label %106

103:                                              ; preds = %87
  %104 = load ptr, ptr %8, align 8, !tbaa !8
  %105 = load ptr, ptr %14, align 8, !tbaa !14
  call void @Cudd_RecursiveDeref(ptr noundef %104, ptr noundef %105)
  store ptr null, ptr %6, align 8
  store i32 1, ptr %22, align 4
  br label %170

106:                                              ; preds = %87
  %107 = load ptr, ptr %15, align 8, !tbaa !14
  %108 = ptrtoint ptr %107 to i64
  %109 = and i64 %108, -2
  %110 = inttoptr i64 %109 to ptr
  %111 = getelementptr inbounds nuw %struct.DdNode, ptr %110, i32 0, i32 1
  %112 = load i32, ptr %111, align 4, !tbaa !70
  %113 = add i32 %112, 1
  store i32 %113, ptr %111, align 4, !tbaa !70
  %114 = load ptr, ptr %18, align 8, !tbaa !14
  %115 = ptrtoint ptr %114 to i64
  %116 = xor i64 %115, 1
  %117 = inttoptr i64 %116 to ptr
  store ptr %117, ptr %19, align 8, !tbaa !14
  %118 = load ptr, ptr %8, align 8, !tbaa !8
  %119 = load i32, ptr %20, align 4, !tbaa !12
  %120 = load ptr, ptr %18, align 8, !tbaa !14
  %121 = load ptr, ptr %19, align 8, !tbaa !14
  %122 = call ptr @cuddUniqueInter(ptr noundef %118, i32 noundef %119, ptr noundef %120, ptr noundef %121)
  store ptr %122, ptr %16, align 8, !tbaa !14
  %123 = load ptr, ptr %16, align 8, !tbaa !14
  %124 = icmp eq ptr %123, null
  br i1 %124, label %125, label %130

125:                                              ; preds = %106
  %126 = load ptr, ptr %8, align 8, !tbaa !8
  %127 = load ptr, ptr %14, align 8, !tbaa !14
  call void @Cudd_RecursiveDeref(ptr noundef %126, ptr noundef %127)
  %128 = load ptr, ptr %8, align 8, !tbaa !8
  %129 = load ptr, ptr %15, align 8, !tbaa !14
  call void @Cudd_RecursiveDeref(ptr noundef %128, ptr noundef %129)
  store ptr null, ptr %6, align 8
  store i32 1, ptr %22, align 4
  br label %170

130:                                              ; preds = %106
  %131 = load ptr, ptr %8, align 8, !tbaa !8
  %132 = load ptr, ptr %16, align 8, !tbaa !14
  %133 = load ptr, ptr %14, align 8, !tbaa !14
  %134 = load ptr, ptr %15, align 8, !tbaa !14
  %135 = call ptr @cuddBddIteRecur(ptr noundef %131, ptr noundef %132, ptr noundef %133, ptr noundef %134)
  store ptr %135, ptr %17, align 8, !tbaa !14
  %136 = load ptr, ptr %17, align 8, !tbaa !14
  %137 = icmp eq ptr %136, null
  br i1 %137, label %138, label %143

138:                                              ; preds = %130
  %139 = load ptr, ptr %8, align 8, !tbaa !8
  %140 = load ptr, ptr %14, align 8, !tbaa !14
  call void @Cudd_RecursiveDeref(ptr noundef %139, ptr noundef %140)
  %141 = load ptr, ptr %8, align 8, !tbaa !8
  %142 = load ptr, ptr %15, align 8, !tbaa !14
  call void @Cudd_RecursiveDeref(ptr noundef %141, ptr noundef %142)
  store ptr null, ptr %6, align 8
  store i32 1, ptr %22, align 4
  br label %170

143:                                              ; preds = %130
  %144 = load ptr, ptr %17, align 8, !tbaa !14
  %145 = ptrtoint ptr %144 to i64
  %146 = and i64 %145, -2
  %147 = inttoptr i64 %146 to ptr
  %148 = getelementptr inbounds nuw %struct.DdNode, ptr %147, i32 0, i32 1
  %149 = load i32, ptr %148, align 4, !tbaa !70
  %150 = add i32 %149, 1
  store i32 %150, ptr %148, align 4, !tbaa !70
  %151 = load ptr, ptr %8, align 8, !tbaa !8
  %152 = load ptr, ptr %14, align 8, !tbaa !14
  call void @Cudd_RecursiveDeref(ptr noundef %151, ptr noundef %152)
  %153 = load ptr, ptr %8, align 8, !tbaa !8
  %154 = load ptr, ptr %15, align 8, !tbaa !14
  call void @Cudd_RecursiveDeref(ptr noundef %153, ptr noundef %154)
  %155 = load ptr, ptr %10, align 8, !tbaa !61
  %156 = load ptr, ptr %9, align 8, !tbaa !14
  %157 = load ptr, ptr %17, align 8, !tbaa !14
  %158 = call i32 @st__add_direct(ptr noundef %155, ptr noundef %156, ptr noundef %157)
  %159 = icmp eq i32 %158, -10000
  br i1 %159, label %160, label %163

160:                                              ; preds = %143
  %161 = load ptr, ptr %8, align 8, !tbaa !8
  %162 = load ptr, ptr %17, align 8, !tbaa !14
  call void @Cudd_RecursiveDeref(ptr noundef %161, ptr noundef %162)
  store ptr null, ptr %6, align 8
  store i32 1, ptr %22, align 4
  br label %170

163:                                              ; preds = %143
  %164 = load ptr, ptr %17, align 8, !tbaa !14
  %165 = ptrtoint ptr %164 to i64
  %166 = load i32, ptr %21, align 4, !tbaa !12
  %167 = sext i32 %166 to i64
  %168 = xor i64 %165, %167
  %169 = inttoptr i64 %168 to ptr
  store ptr %169, ptr %6, align 8
  store i32 1, ptr %22, align 4
  br label %170

170:                                              ; preds = %163, %160, %138, %125, %103, %86, %55, %37
  call void @llvm.lifetime.end.p0(i64 4, ptr %21) #5
  call void @llvm.lifetime.end.p0(i64 4, ptr %20) #5
  call void @llvm.lifetime.end.p0(i64 8, ptr %19) #5
  call void @llvm.lifetime.end.p0(i64 8, ptr %18) #5
  call void @llvm.lifetime.end.p0(i64 8, ptr %17) #5
  call void @llvm.lifetime.end.p0(i64 8, ptr %16) #5
  call void @llvm.lifetime.end.p0(i64 8, ptr %15) #5
  call void @llvm.lifetime.end.p0(i64 8, ptr %14) #5
  call void @llvm.lifetime.end.p0(i64 8, ptr %13) #5
  call void @llvm.lifetime.end.p0(i64 8, ptr %12) #5
  %171 = load ptr, ptr %6, align 8
  ret ptr %171
}