; Function Attrs: nounwind uwtable
define internal fastcc ptr @cuddBddTransferPermuteRecur(ptr noundef %0, ptr noundef %1, ptr noundef nonnull %2, ptr noundef %3) unnamed_addr #0 {
  %5 = alloca ptr, align 8
  call void @llvm.lifetime.start.p0(i64 8, ptr nonnull %5) #14
  %6 = getelementptr inbounds nuw i8, ptr %0, i64 40
  %7 = load ptr, ptr %6, align 8, !tbaa !22
  %8 = ptrtoint ptr %1 to i64
  %9 = and i64 %8, -2
  %10 = inttoptr i64 %9 to ptr
  %11 = load i32, ptr %10, align 8, !tbaa !38
  %12 = icmp eq i32 %11, 2147483647
  %13 = and i64 %8, 1
  br i1 %12, label %14, label %18

14:                                               ; preds = %4
  %15 = ptrtoint ptr %7 to i64
  %16 = xor i64 %13, %15
  %17 = inttoptr i64 %16 to ptr
  br label %79

18:                                               ; preds = %4
  %19 = call i32 @st__lookup(ptr noundef nonnull %2, ptr noundef nonnull %10, ptr noundef nonnull %5) #14
  %.not = icmp eq i32 %19, 0
  br i1 %.not, label %25, label %20

20:                                               ; preds = %18
  %21 = load ptr, ptr %5, align 8, !tbaa !3
  %22 = ptrtoint ptr %21 to i64
  %23 = xor i64 %13, %22
  %24 = inttoptr i64 %23 to ptr
  br label %79

25:                                               ; preds = %18
  %26 = load i32, ptr %10, align 8, !tbaa !38
  %27 = zext i32 %26 to i64
  %28 = getelementptr inbounds nuw i32, ptr %3, i64 %27
  %29 = load i32, ptr %28, align 4, !tbaa !19
  %30 = getelementptr inbounds nuw i8, ptr %10, i64 16
  %31 = load ptr, ptr %30, align 8, !tbaa !39
  %32 = getelementptr inbounds nuw i8, ptr %10, i64 24
  %33 = load ptr, ptr %32, align 8, !tbaa !39
  %34 = call fastcc ptr @cuddBddTransferPermuteRecur(ptr noundef nonnull %0, ptr noundef %31, ptr noundef %2, ptr noundef %3)
  %35 = icmp eq ptr %34, null
  br i1 %35, label %79, label %36

36:                                               ; preds = %25
  %37 = ptrtoint ptr %34 to i64
  %38 = and i64 %37, -2
  %39 = inttoptr i64 %38 to ptr
  %40 = getelementptr inbounds nuw i8, ptr %39, i64 4
  %41 = load i32, ptr %40, align 4, !tbaa !52
  %42 = add i32 %41, 1
  store i32 %42, ptr %40, align 4, !tbaa !52
  %43 = call fastcc ptr @cuddBddTransferPermuteRecur(ptr noundef nonnull %0, ptr noundef %33, ptr noundef %2, ptr noundef nonnull %3)
  %44 = icmp eq ptr %43, null
  br i1 %44, label %45, label %46

45:                                               ; preds = %36
  call void @Cudd_RecursiveDeref(ptr noundef nonnull %0, ptr noundef nonnull %34) #14
  br label %79

46:                                               ; preds = %36
  %47 = ptrtoint ptr %43 to i64
  %48 = and i64 %47, -2
  %49 = inttoptr i64 %48 to ptr
  %50 = getelementptr inbounds nuw i8, ptr %49, i64 4
  %51 = load i32, ptr %50, align 4, !tbaa !52
  %52 = add i32 %51, 1
  store i32 %52, ptr %50, align 4, !tbaa !52
  %53 = ptrtoint ptr %7 to i64
  %54 = xor i64 %53, 1
  %55 = inttoptr i64 %54 to ptr
  %56 = call ptr @cuddUniqueInter(ptr noundef nonnull %0, i32 noundef %29, ptr noundef %7, ptr noundef %55) #14
  %57 = icmp eq ptr %56, null
  br i1 %57, label %58, label %59

58:                                               ; preds = %46
  call void @Cudd_RecursiveDeref(ptr noundef nonnull %0, ptr noundef nonnull %34) #14
  call void @Cudd_RecursiveDeref(ptr noundef nonnull %0, ptr noundef nonnull %43) #14
  br label %79

59:                                               ; preds = %46
  %60 = call ptr @cuddBddIteRecur(ptr noundef nonnull %0, ptr noundef nonnull %56, ptr noundef nonnull %34, ptr noundef nonnull %43) #14
  store ptr %60, ptr %5, align 8, !tbaa !3
  %61 = icmp eq ptr %60, null
  br i1 %61, label %62, label %63

62:                                               ; preds = %59
  call void @Cudd_RecursiveDeref(ptr noundef nonnull %0, ptr noundef nonnull %34) #14
  call void @Cudd_RecursiveDeref(ptr noundef nonnull %0, ptr noundef nonnull %43) #14
  br label %79

63:                                               ; preds = %59
  %64 = ptrtoint ptr %60 to i64
  %65 = and i64 %64, -2
  %66 = inttoptr i64 %65 to ptr
  %67 = getelementptr inbounds nuw i8, ptr %66, i64 4
  %68 = load i32, ptr %67, align 4, !tbaa !52
  %69 = add i32 %68, 1
  store i32 %69, ptr %67, align 4, !tbaa !52
  call void @Cudd_RecursiveDeref(ptr noundef nonnull %0, ptr noundef nonnull %34) #14
  call void @Cudd_RecursiveDeref(ptr noundef nonnull %0, ptr noundef nonnull %43) #14
  %70 = load ptr, ptr %5, align 8, !tbaa !3
  %71 = call i32 @st__add_direct(ptr noundef nonnull %2, ptr noundef nonnull %10, ptr noundef %70) #14
  %72 = icmp eq i32 %71, -10000
  %73 = load ptr, ptr %5, align 8, !tbaa !3
  br i1 %72, label %74, label %75

74:                                               ; preds = %63
  call void @Cudd_RecursiveDeref(ptr noundef nonnull %0, ptr noundef %73) #14
  br label %79

75:                                               ; preds = %63
  %76 = ptrtoint ptr %73 to i64
  %77 = xor i64 %13, %76
  %78 = inttoptr i64 %77 to ptr
  br label %79

79:                                               ; preds = %25, %75, %74, %62, %58, %45, %20, %14
  %.0 = phi ptr [ %17, %14 ], [ %24, %20 ], [ null, %45 ], [ null, %58 ], [ null, %62 ], [ null, %74 ], [ %78, %75 ], [ null, %25 ]
  call void @llvm.lifetime.end.p0(i64 8, ptr nonnull %5) #14
  ret ptr %.0
}